target datalayout = "e-m:e-p270:32:32-p271:32:32-p272:64:64-i64:64-i128:128-f80:128-n8:16:32:64-S128"
target triple = "x86_64-pc-linux-gnu"

%"struct.pxrInternal_v0_24__pxrReserved__::HgiDepthStencilState" = type { i8, i8, i32, i8, float, float, i8, %"struct.pxrInternal_v0_24__pxrReserved__::HgiStencilState", %"struct.pxrInternal_v0_24__pxrReserved__::HgiStencilState" }
%"struct.pxrInternal_v0_24__pxrReserved__::HgiStencilState" = type { i32, i32, i32, i32, i32, i32, i32 }

; Function Attrs: mustprogress uwtable
define noundef zeroext i1 @_ZN32pxrInternal_v0_24__pxrReserved__eqERKNS_20HgiDepthStencilStateES2_(ptr noundef nonnull align 4 dereferenceable(80) %0, ptr noundef nonnull align 4 dereferenceable(80) %1) #1 {
  %3 = alloca ptr, align 8
  %4 = alloca ptr, align 8
  store ptr %0, ptr %3, align 8
  store ptr %1, ptr %4, align 8
  %5 = load ptr, ptr %3, align 8
  %6 = getelementptr inbounds nuw %"struct.pxrInternal_v0_24__pxrReserved__::HgiDepthStencilState", ptr %5, i32 0, i32 0
  %7 = load i8, ptr %6, align 4
  %8 = trunc i8 %7 to i1
  %9 = zext i1 %8 to i32
  %10 = load ptr, ptr %4, align 8
  %11 = getelementptr inbounds nuw %"struct.pxrInternal_v0_24__pxrReserved__::HgiDepthStencilState", ptr %10, i32 0, i32 0
  %12 = load i8, ptr %11, align 4
  %13 = trunc i8 %12 to i1
  %14 = zext i1 %13 to i32
  %15 = icmp eq i32 %9, %14
  br i1 %15, label %16, label %88

16:                                               ; preds = %2
  %17 = load ptr, ptr %3, align 8
  %18 = getelementptr inbounds nuw %"struct.pxrInternal_v0_24__pxrReserved__::HgiDepthStencilState", ptr %17, i32 0, i32 1
  %19 = load i8, ptr %18, align 1
  %20 = trunc i8 %19 to i1
  %21 = zext i1 %20 to i32
  %22 = load ptr, ptr %4, align 8
  %23 = getelementptr inbounds nuw %"struct.pxrInternal_v0_24__pxrReserved__::HgiDepthStencilState", ptr %22, i32 0, i32 1
  %24 = load i8, ptr %23, align 1
  %25 = trunc i8 %24 to i1
  %26 = zext i1 %25 to i32
  %27 = icmp eq i32 %21, %26
  br i1 %27, label %28, label %88

28:                                               ; preds = %16
  %29 = load ptr, ptr %3, align 8
  %30 = getelementptr inbounds nuw %"struct.pxrInternal_v0_24__pxrReserved__::HgiDepthStencilState", ptr %29, i32 0, i32 2
  %31 = load i32, ptr %30, align 4
  %32 = load ptr, ptr %4, align 8
  %33 = getelementptr inbounds nuw %"struct.pxrInternal_v0_24__pxrReserved__::HgiDepthStencilState", ptr %32, i32 0, i32 2
  %34 = load i32, ptr %33, align 4
  %35 = icmp eq i32 %31, %34
  br i1 %35, label %36, label %88

36:                                               ; preds = %28
  %37 = load ptr, ptr %3, align 8
  %38 = getelementptr inbounds nuw %"struct.pxrInternal_v0_24__pxrReserved__::HgiDepthStencilState", ptr %37, i32 0, i32 3
  %39 = load i8, ptr %38, align 4
  %40 = trunc i8 %39 to i1
  %41 = zext i1 %40 to i32
  %42 = load ptr, ptr %4, align 8
  %43 = getelementptr inbounds nuw %"struct.pxrInternal_v0_24__pxrReserved__::HgiDepthStencilState", ptr %42, i32 0, i32 3
  %44 = load i8, ptr %43, align 4
  %45 = trunc i8 %44 to i1
  %46 = zext i1 %45 to i32
  %47 = icmp eq i32 %41, %46
  br i1 %47, label %48, label %88

48:                                               ; preds = %36
  %49 = load ptr, ptr %3, align 8
  %50 = getelementptr inbounds nuw %"struct.pxrInternal_v0_24__pxrReserved__::HgiDepthStencilState", ptr %49, i32 0, i32 4
  %51 = load float, ptr %50, align 4
  %52 = load ptr, ptr %4, align 8
  %53 = getelementptr inbounds nuw %"struct.pxrInternal_v0_24__pxrReserved__::HgiDepthStencilState", ptr %52, i32 0, i32 4
  %54 = load float, ptr %53, align 4
  %55 = fcmp oeq float %51, %54
  br i1 %55, label %56, label %88

56:                                               ; preds = %48
  %57 = load ptr, ptr %3, align 8
  %58 = getelementptr inbounds nuw %"struct.pxrInternal_v0_24__pxrReserved__::HgiDepthStencilState", ptr %57, i32 0, i32 5
  %59 = load float, ptr %58, align 4
  %60 = load ptr, ptr %4, align 8
  %61 = getelementptr inbounds nuw %"struct.pxrInternal_v0_24__pxrReserved__::HgiDepthStencilState", ptr %60, i32 0, i32 5
  %62 = load float, ptr %61, align 4
  %63 = fcmp oeq float %59, %62
  br i1 %63, label %64, label %88

64:                                               ; preds = %56
  %65 = load ptr, ptr %3, align 8
  %66 = getelementptr inbounds nuw %"struct.pxrInternal_v0_24__pxrReserved__::HgiDepthStencilState", ptr %65, i32 0, i32 6
  %67 = load i8, ptr %66, align 4
  %68 = trunc i8 %67 to i1
  %69 = zext i1 %68 to i32
  %70 = load ptr, ptr %4, align 8
  %71 = getelementptr inbounds nuw %"struct.pxrInternal_v0_24__pxrReserved__::HgiDepthStencilState", ptr %70, i32 0, i32 6
  %72 = load i8, ptr %71, align 4
  %73 = trunc i8 %72 to i1
  %74 = zext i1 %73 to i32
  %75 = icmp eq i32 %69, %74
  br i1 %75, label %76, label %88

76:                                               ; preds = %64
  %77 = load ptr, ptr %3, align 8
  %78 = getelementptr inbounds nuw %"struct.pxrInternal_v0_24__pxrReserved__::HgiDepthStencilState", ptr %77, i32 0, i32 7
  %79 = load ptr, ptr %4, align 8
  %80 = getelementptr inbounds nuw %"struct.pxrInternal_v0_24__pxrReserved__::HgiDepthStencilState", ptr %79, i32 0, i32 7
  %81 = call noundef zeroext i1 @_ZN32pxrInternal_v0_24__pxrReserved__eqERKNS_15HgiStencilStateES2_(ptr noundef nonnull align 4 dereferenceable(28) %78, ptr noundef nonnull align 4 dereferenceable(28) %80)
  br i1 %81, label %82, label %88

82:                                               ; preds = %76
  %83 = load ptr, ptr %3, align 8
  %84 = getelementptr inbounds nuw %"struct.pxrInternal_v0_24__pxrReserved__::HgiDepthStencilState", ptr %83, i32 0, i32 8
  %85 = load ptr, ptr %4, align 8
  %86 = getelementptr inbounds nuw %"struct.pxrInternal_v0_24__pxrReserved__::HgiDepthStencilState", ptr %85, i32 0, i32 8
  %87 = call noundef zeroext i1 @_ZN32pxrInternal_v0_24__pxrReserved__eqERKNS_15HgiStencilStateES2_(ptr noundef nonnull align 4 dereferenceable(28) %84, ptr noundef nonnull align 4 dereferenceable(28) %86)
  br label %88

88:                                               ; preds = %82, %76, %64, %56, %48, %36, %28, %16, %2
  %89 = phi i1 [ false, %76 ], [ false, %64 ], [ false, %56 ], [ false, %48 ], [ false, %36 ], [ false, %28 ], [ false, %16 ], [ false, %2 ], [ %87, %82 ]
  ret i1 %89
}

; Function Attrs: mustprogress uwtable
define noundef zeroext i1 @_ZN32pxrInternal_v0_24__pxrReserved__neERKNS_20HgiDepthStencilStateES2_(ptr noundef nonnull align 4 dereferenceable(80) %0, ptr noundef nonnull align 4 dereferenceable(80) %1) #1 {
  %3 = alloca ptr, align 8
  %4 = alloca ptr, align 8
  store ptr %0, ptr %3, align 8
  store ptr %1, ptr %4, align 8
  %5 = load ptr, ptr %3, align 8
  %6 = load ptr, ptr %4, align 8
  %7 = call noundef zeroext i1 @_ZN32pxrInternal_v0_24__pxrReserved__eqERKNS_20HgiDepthStencilStateES2_(ptr noundef nonnull align 4 dereferenceable(80) %5, ptr noundef nonnull align 4 dereferenceable(80) %6)
  %8 = xor i1 %7, true
  ret i1 %8
}