; Function Attrs: mustprogress nofree norecurse nosync nounwind willreturn memory(argmem: read) uwtable
define noundef zeroext i1 @_ZN32pxrInternal_v0_24__pxrReserved__neERKNS_20HgiDepthStencilStateES2_(ptr nocapture noundef nonnull readonly align 4 dereferenceable(80) %0, ptr nocapture noundef nonnull readonly align 4 dereferenceable(80) %1) local_unnamed_addr #1 {
  %3 = load i8, ptr %0, align 4
  %4 = load i8, ptr %1, align 4
  %5 = xor i8 %4, %3
  %6 = and i8 %5, 1
  %7 = icmp eq i8 %6, 0
  br i1 %7, label %8, label %_ZN32pxrInternal_v0_24__pxrReserved__eqERKNS_20HgiDepthStencilStateES2_.exit

8:                                                ; preds = %2
  %9 = getelementptr inbounds nuw i8, ptr %0, i64 1
  %10 = load i8, ptr %9, align 1
  %11 = getelementptr inbounds nuw i8, ptr %1, i64 1
  %12 = load i8, ptr %11, align 1
  %13 = xor i8 %12, %10
  %14 = and i8 %13, 1
  %15 = icmp eq i8 %14, 0
  br i1 %15, label %16, label %_ZN32pxrInternal_v0_24__pxrReserved__eqERKNS_20HgiDepthStencilStateES2_.exit

16:                                               ; preds = %8
  %17 = getelementptr inbounds nuw i8, ptr %0, i64 4
  %18 = load i32, ptr %17, align 4
  %19 = getelementptr inbounds nuw i8, ptr %1, i64 4
  %20 = load i32, ptr %19, align 4
  %21 = icmp eq i32 %18, %20
  br i1 %21, label %22, label %_ZN32pxrInternal_v0_24__pxrReserved__eqERKNS_20HgiDepthStencilStateES2_.exit

22:                                               ; preds = %16
  %23 = getelementptr inbounds nuw i8, ptr %0, i64 8
  %24 = load i8, ptr %23, align 4
  %25 = getelementptr inbounds nuw i8, ptr %1, i64 8
  %26 = load i8, ptr %25, align 4
  %27 = xor i8 %26, %24
  %28 = and i8 %27, 1
  %29 = icmp eq i8 %28, 0
  br i1 %29, label %30, label %_ZN32pxrInternal_v0_24__pxrReserved__eqERKNS_20HgiDepthStencilStateES2_.exit

30:                                               ; preds = %22
  %31 = getelementptr inbounds nuw i8, ptr %0, i64 12
  %32 = load float, ptr %31, align 4
  %33 = getelementptr inbounds nuw i8, ptr %1, i64 12
  %34 = load float, ptr %33, align 4
  %35 = fcmp oeq float %32, %34
  br i1 %35, label %36, label %_ZN32pxrInternal_v0_24__pxrReserved__eqERKNS_20HgiDepthStencilStateES2_.exit

36:                                               ; preds = %30
  %37 = getelementptr inbounds nuw i8, ptr %0, i64 16
  %38 = load float, ptr %37, align 4
  %39 = getelementptr inbounds nuw i8, ptr %1, i64 16
  %40 = load float, ptr %39, align 4
  %41 = fcmp oeq float %38, %40
  br i1 %41, label %42, label %_ZN32pxrInternal_v0_24__pxrReserved__eqERKNS_20HgiDepthStencilStateES2_.exit

42:                                               ; preds = %36
  %43 = getelementptr inbounds nuw i8, ptr %0, i64 20
  %44 = load i8, ptr %43, align 4
  %45 = getelementptr inbounds nuw i8, ptr %1, i64 20
  %46 = load i8, ptr %45, align 4
  %47 = xor i8 %46, %44
  %48 = and i8 %47, 1
  %49 = icmp eq i8 %48, 0
  br i1 %49, label %50, label %_ZN32pxrInternal_v0_24__pxrReserved__eqERKNS_20HgiDepthStencilStateES2_.exit

50:                                               ; preds = %42
  %51 = getelementptr inbounds nuw i8, ptr %0, i64 24
  %52 = getelementptr inbounds nuw i8, ptr %1, i64 24
  %53 = tail call noundef zeroext i1 @_ZN32pxrInternal_v0_24__pxrReserved__eqERKNS_15HgiStencilStateES2_(ptr noundef nonnull readonly align 4 dereferenceable(28) %51, ptr noundef nonnull readonly align 4 dereferenceable(28) %52)
  br i1 %53, label %54, label %_ZN32pxrInternal_v0_24__pxrReserved__eqERKNS_20HgiDepthStencilStateES2_.exit

54:                                               ; preds = %50
  %55 = getelementptr inbounds nuw i8, ptr %0, i64 52
  %56 = getelementptr inbounds nuw i8, ptr %1, i64 52
  %57 = tail call noundef zeroext i1 @_ZN32pxrInternal_v0_24__pxrReserved__eqERKNS_15HgiStencilStateES2_(ptr noundef nonnull readonly align 4 dereferenceable(28) %55, ptr noundef nonnull readonly align 4 dereferenceable(28) %56)
  %58 = xor i1 %57, true
  br label %_ZN32pxrInternal_v0_24__pxrReserved__eqERKNS_20HgiDepthStencilStateES2_.exit

_ZN32pxrInternal_v0_24__pxrReserved__eqERKNS_20HgiDepthStencilStateES2_.exit: ; preds = %2, %8, %16, %22, %30, %36, %42, %50, %54
  %59 = phi i1 [ true, %50 ], [ true, %42 ], [ true, %36 ], [ true, %30 ], [ true, %22 ], [ true, %16 ], [ true, %8 ], [ true, %2 ], [ %58, %54 ]
  ret i1 %59
}